target datalayout = "e-m:e-p270:32:32-p271:32:32-p272:64:64-i64:64-i128:128-f80:128-n8:16:32:64-S128"
target triple = "x86_64-pc-linux-gnu"

@bio_err = external global ptr, align 8
@.str.246 = private unnamed_addr constant [43 x i8] c"Error copying extensions from certificate\0A\00", align 1
@.str.247 = private unnamed_addr constant [77 x i8] c"Warning: -ext should not specify copying %s extension to CSR; ignoring this\0A\00", align 1

; Function Attrs: inlinehint nounwind uwtable
define internal ptr @ossl_check_X509_EXTENSION_type(ptr noundef %0) #3 {
  %2 = alloca ptr, align 8
  store ptr %0, ptr %2, align 8, !tbaa !43
  %3 = load ptr, ptr %2, align 8, !tbaa !43
  ret ptr %3
}

; Function Attrs: inlinehint nounwind uwtable
define internal ptr @ossl_check_X509_EXTENSION_sk_type(ptr noundef %0) #3 {
  %2 = alloca ptr, align 8
  store ptr %0, ptr %2, align 8, !tbaa !57
  %3 = load ptr, ptr %2, align 8, !tbaa !57
  ret ptr %3
}

; Function Attrs: inlinehint nounwind uwtable
define internal ptr @ossl_check_X509_EXTENSION_compfunc_type(ptr noundef %0) #3 {
  %2 = alloca ptr, align 8
  store ptr %0, ptr %2, align 8, !tbaa !65
  %3 = load ptr, ptr %2, align 8, !tbaa !65
  ret ptr %3
}

; Function Attrs: nounwind uwtable
define internal void @warn_copying(ptr noundef %0, ptr noundef %1) #0 {
  %3 = alloca ptr, align 8
  %4 = alloca ptr, align 8
  %5 = alloca ptr, align 8
  store ptr %0, ptr %3, align 8, !tbaa !13
  store ptr %1, ptr %4, align 8, !tbaa !21
  call void @llvm.lifetime.start.p0(i64 8, ptr %5) #8
  %6 = load ptr, ptr %3, align 8, !tbaa !13
  %7 = call i32 @OBJ_obj2nid(ptr noundef %6)
  %8 = call ptr @OBJ_nid2sn(i32 noundef %7)
  store ptr %8, ptr %5, align 8, !tbaa !21
  %9 = load ptr, ptr %4, align 8, !tbaa !21
  %10 = icmp ne ptr %9, null
  br i1 %10, label %11, label %20

11:                                               ; preds = %2
  %12 = load ptr, ptr %4, align 8, !tbaa !21
  %13 = load ptr, ptr %5, align 8, !tbaa !21
  %14 = call ptr @strstr(ptr noundef %12, ptr noundef %13) #9
  %15 = icmp ne ptr %14, null
  br i1 %15, label %16, label %20

16:                                               ; preds = %11
  %17 = load ptr, ptr @bio_err, align 8, !tbaa !15
  %18 = load ptr, ptr %5, align 8, !tbaa !21
  %19 = call i32 (ptr, ptr, ...) @BIO_printf(ptr noundef %17, ptr noundef @.str.247, ptr noundef %18)
  br label %20

20:                                               ; preds = %16, %11, %2
  call void @llvm.lifetime.end.p0(i64 8, ptr %5) #8
  ret void
}

; Function Attrs: inlinehint nounwind uwtable
define internal ptr @ossl_check_const_X509_EXTENSION_sk_type(ptr noundef %0) #3 {
  %2 = alloca ptr, align 8
  store ptr %0, ptr %2, align 8, !tbaa !57
  %3 = load ptr, ptr %2, align 8, !tbaa !57
  ret ptr %3
}

; Function Attrs: nounwind uwtable
define internal ptr @x509_to_req(ptr noundef %0, i32 noundef %1, ptr noundef %2) #0 {
  %4 = alloca ptr, align 8
  %5 = alloca ptr, align 8
  %6 = alloca i32, align 4
  %7 = alloca ptr, align 8
  %8 = alloca ptr, align 8
  %9 = alloca i32, align 4
  %10 = alloca i32, align 4
  %11 = alloca ptr, align 8
  %12 = alloca ptr, align 8
  %13 = alloca ptr, align 8
  %14 = alloca ptr, align 8
  %15 = alloca i32, align 4
  %16 = alloca ptr, align 8
  %17 = alloca ptr, align 8
  store ptr %0, ptr %5, align 8, !tbaa !31
  store i32 %1, ptr %6, align 4, !tbaa !4
  store ptr %2, ptr %7, align 8, !tbaa !21
  call void @llvm.lifetime.start.p0(i64 8, ptr %8) #8
  %18 = load ptr, ptr %5, align 8, !tbaa !31
  %19 = call ptr @X509_get0_extensions(ptr noundef %18)
  store ptr %19, ptr %8, align 8, !tbaa !57
  call void @llvm.lifetime.start.p0(i64 4, ptr %9) #8
  call void @llvm.lifetime.start.p0(i64 4, ptr %10) #8
  %20 = load ptr, ptr %8, align 8, !tbaa !57
  %21 = call ptr @ossl_check_const_X509_EXTENSION_sk_type(ptr noundef %20)
  %22 = call i32 @OPENSSL_sk_num(ptr noundef %21)
  store i32 %22, ptr %10, align 4, !tbaa !4
  call void @llvm.lifetime.start.p0(i64 8, ptr %11) #8
  %23 = call ptr @OBJ_nid2obj(i32 noundef 82)
  store ptr %23, ptr %11, align 8, !tbaa !13
  call void @llvm.lifetime.start.p0(i64 8, ptr %12) #8
  %24 = call ptr @OBJ_nid2obj(i32 noundef 90)
  store ptr %24, ptr %12, align 8, !tbaa !13
  call void @llvm.lifetime.start.p0(i64 8, ptr %13) #8
  call void @llvm.lifetime.start.p0(i64 8, ptr %14) #8
  %25 = load ptr, ptr %5, align 8, !tbaa !31
  %26 = call ptr @X509_to_X509_REQ(ptr noundef %25, ptr noundef null, ptr noundef null)
  store ptr %26, ptr %14, align 8, !tbaa !33
  %27 = load ptr, ptr %14, align 8, !tbaa !33
  %28 = icmp eq ptr %27, null
  br i1 %28, label %29, label %30

29:                                               ; preds = %3
  store ptr null, ptr %4, align 8
  store i32 1, ptr %15, align 4
  br label %104

30:                                               ; preds = %3
  %31 = load ptr, ptr %11, align 8, !tbaa !13
  %32 = load ptr, ptr %7, align 8, !tbaa !21
  call void @warn_copying(ptr noundef %31, ptr noundef %32)
  %33 = load ptr, ptr %12, align 8, !tbaa !13
  %34 = load ptr, ptr %7, align 8, !tbaa !21
  call void @warn_copying(ptr noundef %33, ptr noundef %34)
  %35 = call ptr @ossl_check_X509_EXTENSION_compfunc_type(ptr noundef null)
  %36 = load i32, ptr %10, align 4, !tbaa !4
  %37 = call ptr @OPENSSL_sk_new_reserve(ptr noundef %35, i32 noundef %36)
  store ptr %37, ptr %13, align 8, !tbaa !57
  %38 = icmp eq ptr %37, null
  br i1 %38, label %39, label %40

39:                                               ; preds = %30
  br label %100

40:                                               ; preds = %30
  store i32 0, ptr %9, align 4, !tbaa !4
  br label %41

41:                                               ; preds = %73, %40
  %42 = load i32, ptr %9, align 4, !tbaa !4
  %43 = load i32, ptr %10, align 4, !tbaa !4
  %44 = icmp slt i32 %42, %43
  br i1 %44, label %45, label %76

45:                                               ; preds = %41
  call void @llvm.lifetime.start.p0(i64 8, ptr %16) #8
  %46 = load ptr, ptr %8, align 8, !tbaa !57
  %47 = call ptr @ossl_check_const_X509_EXTENSION_sk_type(ptr noundef %46)
  %48 = load i32, ptr %9, align 4, !tbaa !4
  %49 = call ptr @OPENSSL_sk_value(ptr noundef %47, i32 noundef %48)
  store ptr %49, ptr %16, align 8, !tbaa !43
  call void @llvm.lifetime.start.p0(i64 8, ptr %17) #8
  %50 = load ptr, ptr %16, align 8, !tbaa !43
  %51 = call ptr @X509_EXTENSION_get_object(ptr noundef %50)
  store ptr %51, ptr %17, align 8, !tbaa !13
  %52 = load ptr, ptr %17, align 8, !tbaa !13
  %53 = load ptr, ptr %11, align 8, !tbaa !13
  %54 = call i32 @OBJ_cmp(ptr noundef %52, ptr noundef %53)
  %55 = icmp ne i32 %54, 0
  br i1 %55, label %56, label %69

56:                                               ; preds = %45
  %57 = load ptr, ptr %17, align 8, !tbaa !13
  %58 = load ptr, ptr %12, align 8, !tbaa !13
  %59 = call i32 @OBJ_cmp(ptr noundef %57, ptr noundef %58)
  %60 = icmp ne i32 %59, 0
  br i1 %60, label %61, label %69

61:                                               ; preds = %56
  %62 = load ptr, ptr %13, align 8, !tbaa !57
  %63 = call ptr @ossl_check_X509_EXTENSION_sk_type(ptr noundef %62)
  %64 = load ptr, ptr %16, align 8, !tbaa !43
  %65 = call ptr @ossl_check_X509_EXTENSION_type(ptr noundef %64)
  %66 = call i32 @OPENSSL_sk_push(ptr noundef %63, ptr noundef %65)
  %67 = icmp ne i32 %66, 0
  br i1 %67, label %69, label %68

68:                                               ; preds = %61
  store i32 2, ptr %15, align 4
  br label %70

69:                                               ; preds = %61, %56, %45
  store i32 0, ptr %15, align 4
  br label %70

70:                                               ; preds = %68, %69
  call void @llvm.lifetime.end.p0(i64 8, ptr %17) #8
  call void @llvm.lifetime.end.p0(i64 8, ptr %16) #8
  %71 = load i32, ptr %15, align 4
  switch i32 %71, label %104 [
    i32 0, label %72
    i32 2, label %100
  ]

72:                                               ; preds = %70
  br label %73

73:                                               ; preds = %72
  %74 = load i32, ptr %9, align 4, !tbaa !4
  %75 = add nsw i32 %74, 1
  store i32 %75, ptr %9, align 4, !tbaa !4
  br label %41, !llvm.loop !59

76:                                               ; preds = %41
  %77 = load ptr, ptr %13, align 8, !tbaa !57
  %78 = call ptr @ossl_check_const_X509_EXTENSION_sk_type(ptr noundef %77)
  %79 = call i32 @OPENSSL_sk_num(ptr noundef %78)
  %80 = icmp sgt i32 %79, 0
  br i1 %80, label %81, label %96

81:                                               ; preds = %76
  %82 = load i32, ptr %6, align 4, !tbaa !4
  %83 = icmp ne i32 %82, -1
  br i1 %83, label %84, label %95

84:                                               ; preds = %81
  %85 = load i32, ptr %6, align 4, !tbaa !4
  %86 = icmp ne i32 %85, 0
  br i1 %86, label %87, label %95

87:                                               ; preds = %84
  %88 = load ptr, ptr %14, align 8, !tbaa !33
  %89 = load ptr, ptr %13, align 8, !tbaa !57
  %90 = call i32 @X509_REQ_add_extensions(ptr noundef %88, ptr noundef %89)
  %91 = icmp ne i32 %90, 0
  br i1 %91, label %95, label %92

92:                                               ; preds = %87
  %93 = load ptr, ptr @bio_err, align 8, !tbaa !15
  %94 = call i32 (ptr, ptr, ...) @BIO_printf(ptr noundef %93, ptr noundef @.str.246)
  br label %100

95:                                               ; preds = %87, %84, %81
  br label %96

96:                                               ; preds = %95, %76
  %97 = load ptr, ptr %13, align 8, !tbaa !57
  %98 = call ptr @ossl_check_X509_EXTENSION_sk_type(ptr noundef %97)
  call void @OPENSSL_sk_free(ptr noundef %98)
  %99 = load ptr, ptr %14, align 8, !tbaa !33
  store ptr %99, ptr %4, align 8
  store i32 1, ptr %15, align 4
  br label %104

100:                                              ; preds = %70, %92, %39
  %101 = load ptr, ptr %13, align 8, !tbaa !57
  %102 = call ptr @ossl_check_X509_EXTENSION_sk_type(ptr noundef %101)
  call void @OPENSSL_sk_free(ptr noundef %102)
  %103 = load ptr, ptr %14, align 8, !tbaa !33
  call void @X509_REQ_free(ptr noundef %103)
  store ptr null, ptr %4, align 8
  store i32 1, ptr %15, align 4
  br label %104

104:                                              ; preds = %100, %96, %70, %29
  call void @llvm.lifetime.end.p0(i64 8, ptr %14) #8
  call void @llvm.lifetime.end.p0(i64 8, ptr %13) #8
  call void @llvm.lifetime.end.p0(i64 8, ptr %12) #8
  call void @llvm.lifetime.end.p0(i64 8, ptr %11) #8
  call void @llvm.lifetime.end.p0(i64 4, ptr %10) #8
  call void @llvm.lifetime.end.p0(i64 4, ptr %9) #8
  call void @llvm.lifetime.end.p0(i64 8, ptr %8) #8
  %105 = load ptr, ptr %4, align 8
  ret ptr %105
}